target datalayout = "e-m:e-p270:32:32-p271:32:32-p272:64:64-i64:64-i128:128-f80:128-n8:16:32:64-S128"
target triple = "x86_64-pc-linux-gnu"

%"class.OpenImageIO::v3_1_0::CSHA1" = type { [5 x i32], [2 x i32], [1 x i32], [64 x i8], [20 x i8], [3 x i32], [64 x i8], ptr }

@.str.4 = private unnamed_addr constant [3 x i8] c"rb\00", align 1

; Function Attrs: mustprogress nounwind uwtable
define hidden void @_ZN11OpenImageIO6v3_1_05CSHA16UpdateEPKhj(ptr noundef nonnull align 8 dereferenceable(200) %0, ptr noundef %1, i32 noundef %2) #7 align 2 {
  %4 = alloca ptr, align 8
  %5 = alloca ptr, align 8
  %6 = alloca i32, align 4
  %7 = alloca i32, align 4
  %8 = alloca i32, align 4
  store ptr %0, ptr %4, align 8, !tbaa !20
  store ptr %1, ptr %5, align 8, !tbaa !21
  store i32 %2, ptr %6, align 4, !tbaa !23
  %9 = load ptr, ptr %4, align 8
  call void @llvm.lifetime.start.p0(i64 4, ptr %7) #4
  %10 = getelementptr inbounds nuw %"class.OpenImageIO::v3_1_0::CSHA1", ptr %9, i32 0, i32 1
  %11 = getelementptr inbounds [2 x i32], ptr %10, i64 0, i64 0
  %12 = load i32, ptr %11, align 4, !tbaa !23
  %13 = lshr i32 %12, 3
  %14 = and i32 %13, 63
  store i32 %14, ptr %7, align 4, !tbaa !23
  %15 = load i32, ptr %6, align 4, !tbaa !23
  %16 = shl i32 %15, 3
  %17 = getelementptr inbounds nuw %"class.OpenImageIO::v3_1_0::CSHA1", ptr %9, i32 0, i32 1
  %18 = getelementptr inbounds [2 x i32], ptr %17, i64 0, i64 0
  %19 = load i32, ptr %18, align 4, !tbaa !23
  %20 = add i32 %19, %16
  store i32 %20, ptr %18, align 4, !tbaa !23
  %21 = load i32, ptr %6, align 4, !tbaa !23
  %22 = shl i32 %21, 3
  %23 = icmp ult i32 %20, %22
  br i1 %23, label %24, label %29

24:                                               ; preds = %3
  %25 = getelementptr inbounds nuw %"class.OpenImageIO::v3_1_0::CSHA1", ptr %9, i32 0, i32 1
  %26 = getelementptr inbounds [2 x i32], ptr %25, i64 0, i64 1
  %27 = load i32, ptr %26, align 4, !tbaa !23
  %28 = add i32 %27, 1
  store i32 %28, ptr %26, align 4, !tbaa !23
  br label %29

29:                                               ; preds = %24, %3
  %30 = load i32, ptr %6, align 4, !tbaa !23
  %31 = lshr i32 %30, 29
  %32 = getelementptr inbounds nuw %"class.OpenImageIO::v3_1_0::CSHA1", ptr %9, i32 0, i32 1
  %33 = getelementptr inbounds [2 x i32], ptr %32, i64 0, i64 1
  %34 = load i32, ptr %33, align 4, !tbaa !23
  %35 = add i32 %34, %31
  store i32 %35, ptr %33, align 4, !tbaa !23
  call void @llvm.lifetime.start.p0(i64 4, ptr %8) #4
  %36 = load i32, ptr %7, align 4, !tbaa !23
  %37 = load i32, ptr %6, align 4, !tbaa !23
  %38 = add i32 %36, %37
  %39 = icmp ugt i32 %38, 63
  br i1 %39, label %40, label %70

40:                                               ; preds = %29
  %41 = load i32, ptr %7, align 4, !tbaa !23
  %42 = sub i32 64, %41
  store i32 %42, ptr %8, align 4, !tbaa !23
  %43 = getelementptr inbounds nuw %"class.OpenImageIO::v3_1_0::CSHA1", ptr %9, i32 0, i32 3
  %44 = load i32, ptr %7, align 4, !tbaa !23
  %45 = zext i32 %44 to i64
  %46 = getelementptr inbounds nuw [64 x i8], ptr %43, i64 0, i64 %45
  %47 = load ptr, ptr %5, align 8, !tbaa !21
  %48 = load i32, ptr %8, align 4, !tbaa !23
  %49 = zext i32 %48 to i64
  call void @llvm.memcpy.p0.p0.i64(ptr align 1 %46, ptr align 1 %47, i64 %49, i1 false)
  %50 = getelementptr inbounds nuw %"class.OpenImageIO::v3_1_0::CSHA1", ptr %9, i32 0, i32 0
  %51 = getelementptr inbounds [5 x i32], ptr %50, i64 0, i64 0
  %52 = getelementptr inbounds nuw %"class.OpenImageIO::v3_1_0::CSHA1", ptr %9, i32 0, i32 3
  %53 = getelementptr inbounds [64 x i8], ptr %52, i64 0, i64 0
  call void @_ZN11OpenImageIO6v3_1_05CSHA19TransformEPjPKh(ptr noundef nonnull align 8 dereferenceable(200) %9, ptr noundef %51, ptr noundef %53)
  br label %54

54:                                               ; preds = %66, %40
  %55 = load i32, ptr %8, align 4, !tbaa !23
  %56 = add i32 %55, 63
  %57 = load i32, ptr %6, align 4, !tbaa !23
  %58 = icmp ult i32 %56, %57
  br i1 %58, label %59, label %69

59:                                               ; preds = %54
  %60 = getelementptr inbounds nuw %"class.OpenImageIO::v3_1_0::CSHA1", ptr %9, i32 0, i32 0
  %61 = getelementptr inbounds [5 x i32], ptr %60, i64 0, i64 0
  %62 = load ptr, ptr %5, align 8, !tbaa !21
  %63 = load i32, ptr %8, align 4, !tbaa !23
  %64 = zext i32 %63 to i64
  %65 = getelementptr inbounds nuw i8, ptr %62, i64 %64
  call void @_ZN11OpenImageIO6v3_1_05CSHA19TransformEPjPKh(ptr noundef nonnull align 8 dereferenceable(200) %9, ptr noundef %61, ptr noundef %65)
  br label %66

66:                                               ; preds = %59
  %67 = load i32, ptr %8, align 4, !tbaa !23
  %68 = add i32 %67, 64
  store i32 %68, ptr %8, align 4, !tbaa !23
  br label %54, !llvm.loop !25

69:                                               ; preds = %54
  store i32 0, ptr %7, align 4, !tbaa !23
  br label %71

70:                                               ; preds = %29
  store i32 0, ptr %8, align 4, !tbaa !23
  br label %71

71:                                               ; preds = %70, %69
  %72 = load i32, ptr %6, align 4, !tbaa !23
  %73 = load i32, ptr %8, align 4, !tbaa !23
  %74 = sub i32 %72, %73
  %75 = icmp ne i32 %74, 0
  br i1 %75, label %76, label %89

76:                                               ; preds = %71
  %77 = getelementptr inbounds nuw %"class.OpenImageIO::v3_1_0::CSHA1", ptr %9, i32 0, i32 3
  %78 = load i32, ptr %7, align 4, !tbaa !23
  %79 = zext i32 %78 to i64
  %80 = getelementptr inbounds nuw [64 x i8], ptr %77, i64 0, i64 %79
  %81 = load ptr, ptr %5, align 8, !tbaa !21
  %82 = load i32, ptr %8, align 4, !tbaa !23
  %83 = zext i32 %82 to i64
  %84 = getelementptr inbounds nuw i8, ptr %81, i64 %83
  %85 = load i32, ptr %6, align 4, !tbaa !23
  %86 = load i32, ptr %8, align 4, !tbaa !23
  %87 = sub i32 %85, %86
  %88 = zext i32 %87 to i64
  call void @llvm.memcpy.p0.p0.i64(ptr align 1 %80, ptr align 1 %84, i64 %88, i1 false)
  br label %89

89:                                               ; preds = %76, %71
  call void @llvm.lifetime.end.p0(i64 4, ptr %8) #4
  call void @llvm.lifetime.end.p0(i64 4, ptr %7) #4
  ret void
}

; Function Attrs: mustprogress uwtable
define hidden noundef zeroext i1 @_ZN11OpenImageIO6v3_1_05CSHA18HashFileEPKc(ptr noundef nonnull align 8 dereferenceable(200) %0, ptr noundef %1) #5 align 2 {
  %3 = alloca i1, align 1
  %4 = alloca ptr, align 8
  %5 = alloca ptr, align 8
  %6 = alloca ptr, align 8
  %7 = alloca i32, align 4
  %8 = alloca ptr, align 8
  %9 = alloca i8, align 1
  %10 = alloca i64, align 8
  store ptr %0, ptr %4, align 8, !tbaa !20
  store ptr %1, ptr %5, align 8, !tbaa !21
  %11 = load ptr, ptr %4, align 8
  %12 = load ptr, ptr %5, align 8, !tbaa !21
  %13 = icmp eq ptr %12, null
  br i1 %13, label %14, label %15

14:                                               ; preds = %2
  store i1 false, ptr %3, align 1
  br label %64

15:                                               ; preds = %2
  call void @llvm.lifetime.start.p0(i64 8, ptr %6) #4
  %16 = load ptr, ptr %5, align 8, !tbaa !21
  %17 = call noalias ptr @fopen(ptr noundef %16, ptr noundef @.str.4)
  store ptr %17, ptr %6, align 8, !tbaa !18
  %18 = load ptr, ptr %6, align 8, !tbaa !18
  %19 = icmp eq ptr %18, null
  br i1 %19, label %20, label %21

20:                                               ; preds = %15
  store i1 false, ptr %3, align 1
  store i32 1, ptr %7, align 4
  br label %63

21:                                               ; preds = %15
  call void @llvm.lifetime.start.p0(i64 8, ptr %8) #4
  %22 = call noalias noundef nonnull ptr @_Znam(i64 noundef 524800) #13
  store ptr %22, ptr %8, align 8, !tbaa !21
  %23 = load ptr, ptr %8, align 8, !tbaa !21
  %24 = icmp eq ptr %23, null
  br i1 %24, label %25, label %28

25:                                               ; preds = %21
  %26 = load ptr, ptr %6, align 8, !tbaa !18
  %27 = call i32 @fclose(ptr noundef %26)
  store i1 false, ptr %3, align 1
  store i32 1, ptr %7, align 4
  br label %62

28:                                               ; preds = %21
  call void @llvm.lifetime.start.p0(i64 1, ptr %9) #4
  store i8 1, ptr %9, align 1, !tbaa !37
  br label %29

29:                                               ; preds = %52, %28
  br label %30

30:                                               ; preds = %29
  call void @llvm.lifetime.start.p0(i64 8, ptr %10) #4
  %31 = load ptr, ptr %8, align 8, !tbaa !21
  %32 = load ptr, ptr %6, align 8, !tbaa !18
  %33 = call i64 @fread(ptr noundef %31, i64 noundef 1, i64 noundef 524800, ptr noundef %32)
  store i64 %33, ptr %10, align 8, !tbaa !9
  %34 = load i64, ptr %10, align 8, !tbaa !9
  %35 = icmp ugt i64 %34, 0
  br i1 %35, label %36, label %40

36:                                               ; preds = %30
  %37 = load ptr, ptr %8, align 8, !tbaa !21
  %38 = load i64, ptr %10, align 8, !tbaa !9
  %39 = trunc i64 %38 to i32
  call void @_ZN11OpenImageIO6v3_1_05CSHA16UpdateEPKhj(ptr noundef nonnull align 8 dereferenceable(200) %11, ptr noundef %37, i32 noundef %39)
  br label %40

40:                                               ; preds = %36, %30
  %41 = load i64, ptr %10, align 8, !tbaa !9
  %42 = icmp ult i64 %41, 524800
  br i1 %42, label %43, label %49

43:                                               ; preds = %40
  %44 = load ptr, ptr %6, align 8, !tbaa !18
  %45 = call i32 @feof(ptr noundef %44) #4
  %46 = icmp eq i32 %45, 0
  br i1 %46, label %47, label %48

47:                                               ; preds = %43
  store i8 0, ptr %9, align 1, !tbaa !37
  br label %48

48:                                               ; preds = %47, %43
  store i32 3, ptr %7, align 4
  br label %50

49:                                               ; preds = %40
  store i32 0, ptr %7, align 4
  br label %50

50:                                               ; preds = %49, %48
  call void @llvm.lifetime.end.p0(i64 8, ptr %10) #4
  %51 = load i32, ptr %7, align 4
  switch i32 %51, label %66 [
    i32 0, label %52
    i32 3, label %53
  ]

52:                                               ; preds = %50
  br label %29, !llvm.loop !42

53:                                               ; preds = %50
  %54 = load ptr, ptr %6, align 8, !tbaa !18
  %55 = call i32 @fclose(ptr noundef %54)
  %56 = load ptr, ptr %8, align 8, !tbaa !21
  %57 = icmp eq ptr %56, null
  br i1 %57, label %59, label %58

58:                                               ; preds = %53
  call void @_ZdaPv(ptr noundef %56) #14
  br label %59

59:                                               ; preds = %58, %53
  %60 = load i8, ptr %9, align 1, !tbaa !37, !range !16, !noundef !17
  %61 = trunc i8 %60 to i1
  store i1 %61, ptr %3, align 1
  store i32 1, ptr %7, align 4
  call void @llvm.lifetime.end.p0(i64 1, ptr %9) #4
  br label %62

62:                                               ; preds = %59, %25
  call void @llvm.lifetime.end.p0(i64 8, ptr %8) #4
  br label %63

63:                                               ; preds = %62, %20
  call void @llvm.lifetime.end.p0(i64 8, ptr %6) #4
  br label %64

64:                                               ; preds = %63, %14
  %65 = load i1, ptr %3, align 1
  ret i1 %65

66:                                               ; preds = %50
  unreachable
}