; Function Attrs: mustprogress uwtable
define hidden noundef zeroext i1 @_ZN11OpenImageIO6v3_1_05CSHA18HashFileEPKc(ptr noundef nonnull align 8 captures(none) dereferenceable(200) %0, ptr noundef readonly %1) local_unnamed_addr #4 align 2 {
  %3 = icmp eq ptr %1, null
  br i1 %3, label %53, label %4

4:                                                ; preds = %2
  %5 = tail call noalias ptr @fopen(ptr noundef nonnull %1, ptr noundef nonnull @.str.4)
  %6 = icmp eq ptr %5, null
  br i1 %6, label %53, label %7

7:                                                ; preds = %4
  %8 = tail call noalias noundef nonnull dereferenceable(524800) ptr @_Znam(i64 noundef 524800) #19
  %9 = getelementptr inbounds nuw i8, ptr %0, i64 20
  %10 = getelementptr inbounds nuw i8, ptr %0, i64 24
  %11 = getelementptr inbounds nuw i8, ptr %0, i64 32
  br label %12

12:                                               ; preds = %_ZN11OpenImageIO6v3_1_05CSHA16UpdateEPKhj.exit, %7
  %13 = tail call i64 @fread(ptr noundef nonnull %8, i64 noundef 1, i64 noundef 524800, ptr noundef nonnull %5)
  %.not = icmp eq i64 %13, 0
  br i1 %.not, label %_ZN11OpenImageIO6v3_1_05CSHA16UpdateEPKhj.exit.thread, label %14

14:                                               ; preds = %12
  %15 = trunc i64 %13 to i32
  %16 = load i32, ptr %9, align 4, !tbaa !8
  %17 = lshr i32 %16, 3
  %18 = and i32 %17, 63
  %19 = shl i32 %15, 3
  %20 = add i32 %16, %19
  store i32 %20, ptr %9, align 4, !tbaa !8
  %21 = icmp ult i32 %20, %19
  %22 = load i32, ptr %10, align 8, !tbaa !8
  %23 = zext i1 %21 to i32
  %24 = lshr i32 %15, 29
  %25 = add i32 %22, %24
  %26 = add i32 %25, %23
  store i32 %26, ptr %10, align 8, !tbaa !8
  %27 = add i32 %18, %15
  %28 = icmp ugt i32 %27, 63
  br i1 %28, label %29, label %41

29:                                               ; preds = %14
  %30 = sub nuw nsw i32 64, %18
  %31 = zext nneg i32 %18 to i64
  %32 = getelementptr inbounds nuw [64 x i8], ptr %11, i64 0, i64 %31
  %33 = zext nneg i32 %30 to i64
  tail call void @llvm.memcpy.p0.p0.i64(ptr noundef nonnull align 1 dereferenceable(1) %32, ptr noundef nonnull readonly align 1 dereferenceable(1) %8, i64 %33, i1 false)
  tail call void @_ZN11OpenImageIO6v3_1_05CSHA19TransformEPjPKh(ptr noundef nonnull align 8 dereferenceable(200) %0, ptr noundef nonnull align 8 dereferenceable(200) %0, ptr noundef nonnull %11)
  %34 = xor i32 %18, 127
  %35 = icmp ult i32 %34, %15
  br i1 %35, label %.lr.ph.i, label %.loopexit.i

.lr.ph.i:                                         ; preds = %29, %.lr.ph.i
  %.023.i = phi i32 [ %38, %.lr.ph.i ], [ %30, %29 ]
  %36 = zext i32 %.023.i to i64
  %37 = getelementptr inbounds nuw i8, ptr %8, i64 %36
  tail call void @_ZN11OpenImageIO6v3_1_05CSHA19TransformEPjPKh(ptr noundef nonnull align 8 dereferenceable(200) %0, ptr noundef nonnull align 8 dereferenceable(200) %0, ptr noundef nonnull readonly %37)
  %38 = add i32 %.023.i, 64
  %39 = add i32 %.023.i, 127
  %40 = icmp ult i32 %39, %15
  br i1 %40, label %.lr.ph.i, label %.loopexit.i, !llvm.loop !20

41:                                               ; preds = %14
  %42 = zext nneg i32 %18 to i64
  br label %.loopexit.i

.loopexit.i:                                      ; preds = %.lr.ph.i, %41, %29
  %.021.i = phi i64 [ %42, %41 ], [ 0, %29 ], [ 0, %.lr.ph.i ]
  %.1.i = phi i32 [ 0, %41 ], [ %30, %29 ], [ %38, %.lr.ph.i ]
  %.not.i = icmp eq i32 %.1.i, %15
  br i1 %.not.i, label %_ZN11OpenImageIO6v3_1_05CSHA16UpdateEPKhj.exit, label %43

43:                                               ; preds = %.loopexit.i
  %44 = sub i32 %15, %.1.i
  %45 = getelementptr inbounds nuw [64 x i8], ptr %11, i64 0, i64 %.021.i
  %46 = zext i32 %.1.i to i64
  %47 = getelementptr inbounds nuw i8, ptr %8, i64 %46
  %48 = zext i32 %44 to i64
  tail call void @llvm.memcpy.p0.p0.i64(ptr nonnull align 1 %45, ptr nonnull readonly align 1 %47, i64 %48, i1 false)
  br label %_ZN11OpenImageIO6v3_1_05CSHA16UpdateEPKhj.exit

_ZN11OpenImageIO6v3_1_05CSHA16UpdateEPKhj.exit:   ; preds = %43, %.loopexit.i
  %49 = icmp ult i64 %13, 524800
  br i1 %49, label %_ZN11OpenImageIO6v3_1_05CSHA16UpdateEPKhj.exit.thread, label %12

_ZN11OpenImageIO6v3_1_05CSHA16UpdateEPKhj.exit.thread: ; preds = %12, %_ZN11OpenImageIO6v3_1_05CSHA16UpdateEPKhj.exit
  %50 = tail call i32 @feof(ptr noundef nonnull %5) #22
  %51 = icmp ne i32 %50, 0
  %52 = tail call i32 @fclose(ptr noundef nonnull %5)
  tail call void @_ZdaPv(ptr noundef nonnull %8) #21
  br label %53

53:                                               ; preds = %_ZN11OpenImageIO6v3_1_05CSHA16UpdateEPKhj.exit.thread, %4, %2
  %.0 = phi i1 [ false, %2 ], [ %51, %_ZN11OpenImageIO6v3_1_05CSHA16UpdateEPKhj.exit.thread ], [ false, %4 ]
  ret i1 %.0
}